; Function Attrs: nofree norecurse nosync nounwind memory(argmem: readwrite) uwtable
define internal void @blend_overlay_12bit(ptr noundef readonly captures(none) %0, i64 noundef %1, ptr noundef readonly captures(none) %2, i64 noundef %3, ptr noundef writeonly captures(none) %4, i64 noundef %5, i64 noundef %6, i64 noundef %7, ptr noundef readonly captures(none) %8, ptr readnone captures(none) %9) #6 {
  %11 = getelementptr inbounds nuw i8, ptr %8, i64 8
  %12 = load double, ptr %11, align 8, !tbaa !70
  %13 = fptrunc nsz double %12 to float
  %14 = lshr i64 %5, 1
  %15 = lshr i64 %1, 1
  %16 = lshr i64 %3, 1
  %17 = icmp sgt i64 %7, 0
  %18 = icmp sgt i64 %6, 0
  %or.cond = and i1 %17, %18
  br i1 %or.cond, label %.preheader.us, label %._crit_edge47

.preheader.us:                                    ; preds = %10, %._crit_edge.us
  %indvars.iv51 = phi i64 [ %indvars.iv.next52, %._crit_edge.us ], [ 0, %10 ]
  %.03645.us = phi ptr [ %47, %._crit_edge.us ], [ %4, %10 ]
  %.03744.us = phi ptr [ %49, %._crit_edge.us ], [ %2, %10 ]
  %.03843.us = phi ptr [ %48, %._crit_edge.us ], [ %0, %10 ]
  br label %19

19:                                               ; preds = %.preheader.us, %40
  %indvars.iv = phi i64 [ 0, %.preheader.us ], [ %indvars.iv.next, %40 ]
  %20 = getelementptr inbounds nuw i16, ptr %.03843.us, i64 %indvars.iv
  %21 = load i16, ptr %20, align 2, !tbaa !85
  %22 = zext i16 %21 to i32
  %23 = uitofp i16 %21 to float
  %24 = icmp ult i16 %21, 2048
  br i1 %24, label %33, label %25

25:                                               ; preds = %19
  %26 = sub nsw i32 4095, %22
  %27 = getelementptr inbounds nuw i16, ptr %.03744.us, i64 %indvars.iv
  %28 = load i16, ptr %27, align 2, !tbaa !85
  %29 = zext i16 %28 to i32
  %30 = sub nsw i32 4095, %29
  %31 = mul nsw i32 %30, %26
  %.neg.us = sdiv i32 %31, -4095
  %.neg41.us = shl nsw i32 %.neg.us, 1
  %32 = add nsw i32 %.neg41.us, 4095
  br label %40

33:                                               ; preds = %19
  %34 = getelementptr inbounds nuw i16, ptr %.03744.us, i64 %indvars.iv
  %35 = load i16, ptr %34, align 2, !tbaa !85
  %36 = zext i16 %35 to i32
  %37 = mul nuw nsw i32 %36, %22
  %38 = udiv i32 %37, 4095
  %39 = shl nuw nsw i32 %38, 1
  br label %40

40:                                               ; preds = %33, %25
  %41 = phi i32 [ %39, %33 ], [ %32, %25 ]
  %42 = sub nsw i32 %41, %22
  %43 = sitofp i32 %42 to float
  %44 = tail call nsz float @llvm.fmuladd.f32(float %43, float %13, float %23)
  %45 = fptoui float %44 to i16
  %46 = getelementptr inbounds nuw i16, ptr %.03645.us, i64 %indvars.iv
  store i16 %45, ptr %46, align 2, !tbaa !85
  %indvars.iv.next = add nuw nsw i64 %indvars.iv, 1
  %exitcond.not = icmp eq i64 %indvars.iv.next, %6
  br i1 %exitcond.not, label %._crit_edge.us, label %19, !llvm.loop !376

._crit_edge.us:                                   ; preds = %40
  %47 = getelementptr inbounds nuw i16, ptr %.03645.us, i64 %14
  %48 = getelementptr inbounds nuw i16, ptr %.03843.us, i64 %15
  %49 = getelementptr inbounds nuw i16, ptr %.03744.us, i64 %16
  %indvars.iv.next52 = add nuw nsw i64 %indvars.iv51, 1
  %exitcond54.not = icmp eq i64 %indvars.iv.next52, %7
  br i1 %exitcond54.not, label %._crit_edge47, label %.preheader.us, !llvm.loop !377

._crit_edge47:                                    ; preds = %._crit_edge.us, %10
  ret void
}